target datalayout = "e-m:e-p270:32:32-p271:32:32-p272:64:64-i64:64-i128:128-f80:128-n8:16:32:64-S128"
target triple = "x86_64-pc-linux-gnu"

; Function Attrs: mustprogress nounwind uwtable
define void @_ZN5faiss30fvec_L2sqr_ny_y_transposed_refEPfPKfS2_S2_mmm(ptr noundef %0, ptr noundef %1, ptr noundef %2, ptr noundef %3, i64 noundef %4, i64 noundef %5, i64 noundef %6) #0 {
  %8 = alloca ptr, align 8
  %9 = alloca ptr, align 8
  %10 = alloca ptr, align 8
  %11 = alloca ptr, align 8
  %12 = alloca i64, align 8
  %13 = alloca i64, align 8
  %14 = alloca i64, align 8
  %15 = alloca float, align 4
  %16 = alloca i64, align 8
  %17 = alloca i64, align 8
  %18 = alloca i32, align 4
  %19 = alloca float, align 4
  %20 = alloca i64, align 8
  store ptr %0, ptr %8, align 8, !tbaa !4
  store ptr %1, ptr %9, align 8, !tbaa !4
  store ptr %2, ptr %10, align 8, !tbaa !4
  store ptr %3, ptr %11, align 8, !tbaa !4
  store i64 %4, ptr %12, align 8, !tbaa !9
  store i64 %5, ptr %13, align 8, !tbaa !9
  store i64 %6, ptr %14, align 8, !tbaa !9
  call void @llvm.lifetime.start.p0(i64 4, ptr %15) #13
  store float 0.000000e+00, ptr %15, align 4, !tbaa !11
  call void @llvm.lifetime.start.p0(i64 8, ptr %16) #13
  store i64 0, ptr %16, align 8, !tbaa !9
  br label %21

21:                                               ; preds = %37, %7
  %22 = load i64, ptr %16, align 8, !tbaa !9
  %23 = load i64, ptr %12, align 8, !tbaa !9
  %24 = icmp ult i64 %22, %23
  br i1 %24, label %26, label %25

25:                                               ; preds = %21
  call void @llvm.lifetime.end.p0(i64 8, ptr %16) #13
  br label %40

26:                                               ; preds = %21
  %27 = load ptr, ptr %9, align 8, !tbaa !4
  %28 = load i64, ptr %16, align 8, !tbaa !9
  %29 = getelementptr inbounds nuw float, ptr %27, i64 %28
  %30 = load float, ptr %29, align 4, !tbaa !11
  %31 = load ptr, ptr %9, align 8, !tbaa !4
  %32 = load i64, ptr %16, align 8, !tbaa !9
  %33 = getelementptr inbounds nuw float, ptr %31, i64 %32
  %34 = load float, ptr %33, align 4, !tbaa !11
  %35 = load float, ptr %15, align 4, !tbaa !11
  %36 = call float @llvm.fmuladd.f32(float %30, float %34, float %35)
  store float %36, ptr %15, align 4, !tbaa !11
  br label %37

37:                                               ; preds = %26
  %38 = load i64, ptr %16, align 8, !tbaa !9
  %39 = add i64 %38, 1
  store i64 %39, ptr %16, align 8, !tbaa !9
  br label %21, !llvm.loop !19

40:                                               ; preds = %25
  call void @llvm.lifetime.start.p0(i64 8, ptr %17) #13
  store i64 0, ptr %17, align 8, !tbaa !9
  br label %41

41:                                               ; preds = %82, %40
  %42 = load i64, ptr %17, align 8, !tbaa !9
  %43 = load i64, ptr %14, align 8, !tbaa !9
  %44 = icmp ult i64 %42, %43
  br i1 %44, label %46, label %45

45:                                               ; preds = %41
  store i32 5, ptr %18, align 4
  call void @llvm.lifetime.end.p0(i64 8, ptr %17) #13
  br label %85

46:                                               ; preds = %41
  call void @llvm.lifetime.start.p0(i64 4, ptr %19) #13
  store float 0.000000e+00, ptr %19, align 4, !tbaa !11
  call void @llvm.lifetime.start.p0(i64 8, ptr %20) #13
  store i64 0, ptr %20, align 8, !tbaa !9
  br label %47

47:                                               ; preds = %67, %46
  %48 = load i64, ptr %20, align 8, !tbaa !9
  %49 = load i64, ptr %12, align 8, !tbaa !9
  %50 = icmp ult i64 %48, %49
  br i1 %50, label %52, label %51

51:                                               ; preds = %47
  store i32 8, ptr %18, align 4
  call void @llvm.lifetime.end.p0(i64 8, ptr %20) #13
  br label %70

52:                                               ; preds = %47
  %53 = load ptr, ptr %9, align 8, !tbaa !4
  %54 = load i64, ptr %20, align 8, !tbaa !9
  %55 = getelementptr inbounds nuw float, ptr %53, i64 %54
  %56 = load float, ptr %55, align 4, !tbaa !11
  %57 = load ptr, ptr %10, align 8, !tbaa !4
  %58 = load i64, ptr %17, align 8, !tbaa !9
  %59 = load i64, ptr %20, align 8, !tbaa !9
  %60 = load i64, ptr %13, align 8, !tbaa !9
  %61 = mul i64 %59, %60
  %62 = add i64 %58, %61
  %63 = getelementptr inbounds nuw float, ptr %57, i64 %62
  %64 = load float, ptr %63, align 4, !tbaa !11
  %65 = load float, ptr %19, align 4, !tbaa !11
  %66 = call float @llvm.fmuladd.f32(float %56, float %64, float %65)
  store float %66, ptr %19, align 4, !tbaa !11
  br label %67

67:                                               ; preds = %52
  %68 = load i64, ptr %20, align 8, !tbaa !9
  %69 = add i64 %68, 1
  store i64 %69, ptr %20, align 8, !tbaa !9
  br label %47, !llvm.loop !20

70:                                               ; preds = %51
  %71 = load float, ptr %15, align 4, !tbaa !11
  %72 = load ptr, ptr %11, align 8, !tbaa !4
  %73 = load i64, ptr %17, align 8, !tbaa !9
  %74 = getelementptr inbounds nuw float, ptr %72, i64 %73
  %75 = load float, ptr %74, align 4, !tbaa !11
  %76 = fadd float %71, %75
  %77 = load float, ptr %19, align 4, !tbaa !11
  %78 = call float @llvm.fmuladd.f32(float -2.000000e+00, float %77, float %76)
  %79 = load ptr, ptr %8, align 8, !tbaa !4
  %80 = load i64, ptr %17, align 8, !tbaa !9
  %81 = getelementptr inbounds nuw float, ptr %79, i64 %80
  store float %78, ptr %81, align 4, !tbaa !11
  call void @llvm.lifetime.end.p0(i64 4, ptr %19) #13
  br label %82

82:                                               ; preds = %70
  %83 = load i64, ptr %17, align 8, !tbaa !9
  %84 = add i64 %83, 1
  store i64 %84, ptr %17, align 8, !tbaa !9
  br label %41, !llvm.loop !21

85:                                               ; preds = %45
  call void @llvm.lifetime.end.p0(i64 4, ptr %15) #13
  ret void
}

; Function Attrs: mustprogress nounwind uwtable
define void @_ZN5faiss24fvec_L2sqr_ny_transposedEPfPKfS2_S2_mmm(ptr noundef %0, ptr noundef %1, ptr noundef %2, ptr noundef %3, i64 noundef %4, i64 noundef %5, i64 noundef %6) #0 {
  %8 = alloca ptr, align 8
  %9 = alloca ptr, align 8
  %10 = alloca ptr, align 8
  %11 = alloca ptr, align 8
  %12 = alloca i64, align 8
  %13 = alloca i64, align 8
  %14 = alloca i64, align 8
  store ptr %0, ptr %8, align 8, !tbaa !4
  store ptr %1, ptr %9, align 8, !tbaa !4
  store ptr %2, ptr %10, align 8, !tbaa !4
  store ptr %3, ptr %11, align 8, !tbaa !4
  store i64 %4, ptr %12, align 8, !tbaa !9
  store i64 %5, ptr %13, align 8, !tbaa !9
  store i64 %6, ptr %14, align 8, !tbaa !9
  %15 = load ptr, ptr %8, align 8, !tbaa !4
  %16 = load ptr, ptr %9, align 8, !tbaa !4
  %17 = load ptr, ptr %10, align 8, !tbaa !4
  %18 = load ptr, ptr %11, align 8, !tbaa !4
  %19 = load i64, ptr %12, align 8, !tbaa !9
  %20 = load i64, ptr %13, align 8, !tbaa !9
  %21 = load i64, ptr %14, align 8, !tbaa !9
  call void @_ZN5faiss30fvec_L2sqr_ny_y_transposed_refEPfPKfS2_S2_mmm(ptr noundef %15, ptr noundef %16, ptr noundef %17, ptr noundef %18, i64 noundef %19, i64 noundef %20, i64 noundef %21)
  ret void
}