; Function Attrs: mustprogress nofree norecurse nosync nounwind memory(argmem: readwrite) uwtable
define void @_ZN5faiss24fvec_L2sqr_ny_transposedEPfPKfS2_S2_mmm(ptr noundef writeonly captures(none) %0, ptr noundef readonly captures(none) %1, ptr noundef readonly captures(none) %2, ptr noundef readonly captures(none) %3, i64 noundef %4, i64 noundef %5, i64 noundef %6) local_unnamed_addr #2 {
  %.not.i = icmp eq i64 %4, 0
  br i1 %.not.i, label %.preheader31.thread.i, label %.lr.ph.i

.preheader31.i:                                   ; preds = %.lr.ph.i
  %.not40.i = icmp eq i64 %6, 0
  br i1 %.not40.i, label %_ZN5faiss30fvec_L2sqr_ny_y_transposed_refEPfPKfS2_S2_mmm.exit, label %.preheader.us.i

.preheader31.thread.i:                            ; preds = %7
  %.not4048.i = icmp eq i64 %6, 0
  br i1 %.not4048.i, label %_ZN5faiss30fvec_L2sqr_ny_y_transposed_refEPfPKfS2_S2_mmm.exit, label %.preheader.i

.preheader.us.i:                                  ; preds = %.preheader31.i, %._crit_edge.us.i
  %.02738.us.i = phi i64 [ %22, %._crit_edge.us.i ], [ 0, %.preheader31.i ]
  %8 = getelementptr float, ptr %2, i64 %.02738.us.i
  br label %9

9:                                                ; preds = %9, %.preheader.us.i
  %.035.us.i = phi i64 [ 0, %.preheader.us.i ], [ %16, %9 ]
  %.02634.us.i = phi float [ 0.000000e+00, %.preheader.us.i ], [ %15, %9 ]
  %10 = getelementptr inbounds nuw float, ptr %1, i64 %.035.us.i
  %11 = load float, ptr %10, align 4, !tbaa !4
  %12 = mul i64 %.035.us.i, %5
  %13 = getelementptr float, ptr %8, i64 %12
  %14 = load float, ptr %13, align 4, !tbaa !4
  %15 = tail call float @llvm.fmuladd.f32(float %11, float %14, float %.02634.us.i)
  %16 = add nuw i64 %.035.us.i, 1
  %exitcond44.not.i = icmp eq i64 %16, %4
  br i1 %exitcond44.not.i, label %._crit_edge.us.i, label %9, !llvm.loop !18

._crit_edge.us.i:                                 ; preds = %9
  %17 = getelementptr inbounds nuw float, ptr %3, i64 %.02738.us.i
  %18 = load float, ptr %17, align 4, !tbaa !4
  %19 = fadd float %25, %18
  %20 = tail call float @llvm.fmuladd.f32(float %15, float -2.000000e+00, float %19)
  %21 = getelementptr inbounds nuw float, ptr %0, i64 %.02738.us.i
  store float %20, ptr %21, align 4, !tbaa !4
  %22 = add nuw i64 %.02738.us.i, 1
  %exitcond45.not.i = icmp eq i64 %22, %6
  br i1 %exitcond45.not.i, label %_ZN5faiss30fvec_L2sqr_ny_y_transposed_refEPfPKfS2_S2_mmm.exit, label %.preheader.us.i, !llvm.loop !19

.lr.ph.i:                                         ; preds = %7, %.lr.ph.i
  %.02833.i = phi i64 [ %26, %.lr.ph.i ], [ 0, %7 ]
  %.02932.i = phi float [ %25, %.lr.ph.i ], [ 0.000000e+00, %7 ]
  %23 = getelementptr inbounds nuw float, ptr %1, i64 %.02833.i
  %24 = load float, ptr %23, align 4, !tbaa !4
  %25 = tail call float @llvm.fmuladd.f32(float %24, float %24, float %.02932.i)
  %26 = add nuw i64 %.02833.i, 1
  %exitcond.not.i = icmp eq i64 %26, %4
  br i1 %exitcond.not.i, label %.preheader31.i, label %.lr.ph.i, !llvm.loop !20

.preheader.i:                                     ; preds = %.preheader31.thread.i, %.preheader.i
  %.02738.i = phi i64 [ %31, %.preheader.i ], [ 0, %.preheader31.thread.i ]
  %27 = getelementptr inbounds nuw float, ptr %3, i64 %.02738.i
  %28 = load float, ptr %27, align 4, !tbaa !4
  %29 = fadd float %28, 0.000000e+00
  %30 = getelementptr inbounds nuw float, ptr %0, i64 %.02738.i
  store float %29, ptr %30, align 4, !tbaa !4
  %31 = add nuw i64 %.02738.i, 1
  %exitcond46.not.i = icmp eq i64 %31, %6
  br i1 %exitcond46.not.i, label %_ZN5faiss30fvec_L2sqr_ny_y_transposed_refEPfPKfS2_S2_mmm.exit, label %.preheader.i, !llvm.loop !19

_ZN5faiss30fvec_L2sqr_ny_y_transposed_refEPfPKfS2_S2_mmm.exit: ; preds = %._crit_edge.us.i, %.preheader.i, %.preheader31.i, %.preheader31.thread.i
  ret void
}